target datalayout = "e-m:e-p270:32:32-p271:32:32-p272:64:64-i64:64-i128:128-f80:128-n8:16:32:64-S128"
target triple = "x86_64-pc-linux-gnu"

%struct.IOStreamFDData = type { i32, i8, i8 }

@.str.19 = private unnamed_addr constant [27 x i8] c"Unknown value for 'whence'\00", align 1
@.str.20 = private unnamed_addr constant [31 x i8] c"Couldn't get stream offset: %s\00", align 1

; Function Attrs: nounwind uwtable
define internal i64 @fd_seek(ptr noundef %0, i64 noundef %1, i32 noundef %2) #0 {
  %4 = alloca i64, align 8
  %5 = alloca ptr, align 8
  %6 = alloca i64, align 8
  %7 = alloca i32, align 4
  %8 = alloca ptr, align 8
  %9 = alloca i32, align 4
  %10 = alloca i32, align 4
  %11 = alloca i64, align 8
  store ptr %0, ptr %5, align 8
  store i64 %1, ptr %6, align 8
  store i32 %2, ptr %7, align 4
  call void @llvm.lifetime.start.p0(i64 8, ptr %8) #11
  %12 = load ptr, ptr %5, align 8
  store ptr %12, ptr %8, align 8
  call void @llvm.lifetime.start.p0(i64 4, ptr %9) #11
  %13 = load i32, ptr %7, align 4
  switch i32 %13, label %17 [
    i32 0, label %14
    i32 1, label %15
    i32 2, label %16
  ]

14:                                               ; preds = %3
  store i32 0, ptr %9, align 4
  br label %19

15:                                               ; preds = %3
  store i32 1, ptr %9, align 4
  br label %19

16:                                               ; preds = %3
  store i32 2, ptr %9, align 4
  br label %19

17:                                               ; preds = %3
  %18 = call zeroext i1 (ptr, ...) @SDL_SetError_REAL(ptr noundef @.str.19)
  store i64 -1, ptr %4, align 8
  store i32 1, ptr %10, align 4
  br label %35

19:                                               ; preds = %16, %15, %14
  call void @llvm.lifetime.start.p0(i64 8, ptr %11) #11
  %20 = load ptr, ptr %8, align 8
  %21 = getelementptr inbounds nuw %struct.IOStreamFDData, ptr %20, i32 0, i32 0
  %22 = load i32, ptr %21, align 4
  %23 = load i64, ptr %6, align 8
  %24 = load i32, ptr %9, align 4
  %25 = call i64 @lseek(i32 noundef %22, i64 noundef %23, i32 noundef %24) #11
  store i64 %25, ptr %11, align 8
  %26 = load i64, ptr %11, align 8
  %27 = icmp slt i64 %26, 0
  br i1 %27, label %28, label %33

28:                                               ; preds = %19
  %29 = call ptr @__errno_location() #13
  %30 = load i32, ptr %29, align 4
  %31 = call ptr @strerror(i32 noundef %30) #11
  %32 = call zeroext i1 (ptr, ...) @SDL_SetError_REAL(ptr noundef @.str.20, ptr noundef %31)
  br label %33

33:                                               ; preds = %28, %19
  %34 = load i64, ptr %11, align 8
  store i64 %34, ptr %4, align 8
  store i32 1, ptr %10, align 4
  call void @llvm.lifetime.end.p0(i64 8, ptr %11) #11
  br label %35

35:                                               ; preds = %33, %17
  call void @llvm.lifetime.end.p0(i64 4, ptr %9) #11
  call void @llvm.lifetime.end.p0(i64 8, ptr %8) #11
  %36 = load i64, ptr %4, align 8
  ret i64 %36
}