; Function Attrs: nounwind uwtable
define internal i64 @fd_seek(ptr noundef readonly captures(none) %0, i64 noundef %1, i32 noundef %2) #0 {
  %switch = icmp ult i32 %2, 3
  br i1 %switch, label %6, label %4

4:                                                ; preds = %3
  %5 = tail call zeroext i1 (ptr, ...) @SDL_SetError_REAL(ptr noundef nonnull @.str.19) #18
  br label %15

6:                                                ; preds = %3
  %7 = load i32, ptr %0, align 4
  %8 = tail call i64 @lseek(i32 noundef %7, i64 noundef %1, i32 noundef %2) #18
  %9 = icmp slt i64 %8, 0
  br i1 %9, label %10, label %15

10:                                               ; preds = %6
  %11 = tail call ptr @__errno_location() #19
  %12 = load i32, ptr %11, align 4
  %13 = tail call ptr @strerror(i32 noundef %12) #18
  %14 = tail call zeroext i1 (ptr, ...) @SDL_SetError_REAL(ptr noundef nonnull @.str.20, ptr noundef %13) #18
  br label %15

15:                                               ; preds = %6, %10, %4
  %.0 = phi i64 [ -1, %4 ], [ %8, %10 ], [ %8, %6 ]
  ret i64 %.0
}